; Function Attrs: mustprogress nounwind uwtable
define hidden void @_ZN17StubCodeGenerator11stub_epilogEP12StubCodeDesc(ptr nocapture noundef nonnull readonly align 8 dereferenceable(24) %0, ptr nocapture noundef readonly %1) unnamed_addr #2 align 2 {
  %3 = alloca %class.LogStream, align 8
  %4 = load volatile ptr, ptr getelementptr inbounds (i8, ptr @_ZN16LogTagSetMappingILN6LogTag4typeE150ELS1_0ELS1_0ELS1_0ELS1_0ELS1_0EE7_tagsetE, i64 56), align 8
  %.not = icmp eq ptr %4, null
  br i1 %.not, label %20, label %5

5:                                                ; preds = %2
  call void @_ZN12outputStreamC2Eb(ptr noundef nonnull align 8 dereferenceable(56) %3, i1 noundef zeroext false) #8
  store ptr getelementptr inbounds inrange(-16, 40) (i8, ptr @_ZTV17LogStreamImplBase, i64 16), ptr %3, align 8
  %6 = getelementptr inbounds i8, ptr %3, i64 56
  call void @_ZN17LogStreamImplBase10LineBufferC1Ev(ptr noundef nonnull align 8 dereferenceable(88) %6) #8
  %7 = getelementptr inbounds i8, ptr %3, i64 144
  store i32 2, ptr %7, align 8
  %.sroa.21.0..sroa_idx.i.i = getelementptr inbounds i8, ptr %3, i64 152
  store ptr @_ZN16LogTagSetMappingILN6LogTag4typeE150ELS1_0ELS1_0ELS1_0ELS1_0ELS1_0EE7_tagsetE, ptr %.sroa.21.0..sroa_idx.i.i, align 8
  store ptr getelementptr inbounds inrange(-16, 40) (i8, ptr @_ZTV9LogStream, i64 16), ptr %3, align 8
  %8 = getelementptr inbounds i8, ptr %1, i64 8
  %9 = load ptr, ptr %8, align 8
  call void (ptr, ptr, ...) @_ZN12outputStream5printEPKcz(ptr noundef nonnull align 8 dereferenceable(56) %3, ptr noundef nonnull @.str, ptr noundef %9) #8
  call void (ptr, ptr, ...) @_ZN12outputStream5printEPKcz(ptr noundef nonnull align 8 dereferenceable(56) %3, ptr noundef nonnull @.str.4) #8
  %10 = getelementptr inbounds i8, ptr %1, i64 16
  %11 = load ptr, ptr %10, align 8
  call void (ptr, ptr, ...) @_ZN12outputStream5printEPKcz(ptr noundef nonnull align 8 dereferenceable(56) %3, ptr noundef nonnull @.str, ptr noundef %11) #8
  %12 = getelementptr inbounds i8, ptr %1, i64 24
  %13 = load ptr, ptr %12, align 8
  %14 = ptrtoint ptr %13 to i64
  %15 = getelementptr inbounds i8, ptr %1, i64 32
  %16 = load ptr, ptr %15, align 8
  %17 = ptrtoint ptr %16 to i64
  %18 = sub i64 %17, %14
  %19 = trunc i64 %18 to i32
  call void (ptr, ptr, ...) @_ZN12outputStream5printEPKcz(ptr noundef nonnull align 8 dereferenceable(56) %3, ptr noundef nonnull @.str.5, i64 noundef %14, i64 noundef %17, i32 noundef %19) #8
  call void @_ZN12outputStream2crEv(ptr noundef nonnull align 8 dereferenceable(56) %3) #8
  call void @_ZN13LogStreamImplI15LogTargetHandleED2Ev(ptr noundef nonnull align 8 dereferenceable(160) %3) #8
  br label %20

20:                                               ; preds = %5, %2
  %21 = getelementptr inbounds i8, ptr %0, i64 8
  %22 = load i8, ptr %21, align 8
  %23 = trunc i8 %22 to i1
  br i1 %23, label %24, label %46

24:                                               ; preds = %20
  %25 = call noundef i64 @_ZN9ttyLocker8hold_ttyEv() #8
  %26 = load ptr, ptr @tty, align 8
  call void (ptr, ptr, ...) @_ZN12outputStream8print_crEPKcz(ptr noundef nonnull align 8 dereferenceable(56) %26, ptr noundef nonnull @.str.6) #8
  %27 = load ptr, ptr @tty, align 8
  %28 = getelementptr inbounds i8, ptr %1, i64 8
  %29 = load ptr, ptr %28, align 8
  call void (ptr, ptr, ...) @_ZN12outputStream5printEPKcz(ptr noundef nonnull align 8 dereferenceable(56) %27, ptr noundef nonnull @.str, ptr noundef %29) #8
  call void (ptr, ptr, ...) @_ZN12outputStream5printEPKcz(ptr noundef nonnull align 8 dereferenceable(56) %27, ptr noundef nonnull @.str.4) #8
  %30 = getelementptr inbounds i8, ptr %1, i64 16
  %31 = load ptr, ptr %30, align 8
  call void (ptr, ptr, ...) @_ZN12outputStream5printEPKcz(ptr noundef nonnull align 8 dereferenceable(56) %27, ptr noundef nonnull @.str, ptr noundef %31) #8
  %32 = getelementptr inbounds i8, ptr %1, i64 24
  %33 = load ptr, ptr %32, align 8
  %34 = ptrtoint ptr %33 to i64
  %35 = getelementptr inbounds i8, ptr %1, i64 32
  %36 = load ptr, ptr %35, align 8
  %37 = ptrtoint ptr %36 to i64
  %38 = sub i64 %37, %34
  %39 = trunc i64 %38 to i32
  call void (ptr, ptr, ...) @_ZN12outputStream5printEPKcz(ptr noundef nonnull align 8 dereferenceable(56) %27, ptr noundef nonnull @.str.5, i64 noundef %34, i64 noundef %37, i32 noundef %39) #8
  %40 = load ptr, ptr @tty, align 8
  call void @_ZN12outputStream2crEv(ptr noundef nonnull align 8 dereferenceable(56) %40) #8
  %41 = load ptr, ptr %32, align 8
  %42 = load ptr, ptr %35, align 8
  %43 = load ptr, ptr @tty, align 8
  call void @_ZN12Disassembler6decodeEPhS0_P12outputStream(ptr noundef %41, ptr noundef %42, ptr noundef %43) #8
  %44 = load ptr, ptr @tty, align 8
  call void (ptr, ptr, ...) @_ZN12outputStream8print_crEPKcz(ptr noundef nonnull align 8 dereferenceable(56) %44, ptr noundef nonnull @.str.7) #8
  %45 = load ptr, ptr @tty, align 8
  call void @_ZN12outputStream2crEv(ptr noundef nonnull align 8 dereferenceable(56) %45) #8
  call void @_ZN9ttyLocker11release_ttyEl(i64 noundef %25) #8
  br label %46

46:                                               ; preds = %24, %20
  ret void
}